target datalayout = "e-m:e-p270:32:32-p271:32:32-p272:64:64-i64:64-i128:128-f80:128-n8:16:32:64-S128"
target triple = "x86_64-pc-linux-gnu"

%"union.absl::lts_20240722::internal_any_invocable::TypeErasedState" = type { %struct.anon }
%struct.anon = type { ptr, i64 }
%"class.absl::lts_20240722::AnyInvocable.6" = type { %"class.absl::lts_20240722::internal_any_invocable::Impl.7" }
%"class.absl::lts_20240722::internal_any_invocable::Impl.7" = type { %"class.absl::lts_20240722::internal_any_invocable::CoreImpl.8" }
%"class.absl::lts_20240722::internal_any_invocable::CoreImpl.8" = type { %"union.absl::lts_20240722::internal_any_invocable::TypeErasedState", ptr, ptr }
%"class.absl::lts_20240722::Status" = type { i64 }
%"class.absl::lts_20240722::StatusOr" = type { %"class.absl::lts_20240722::internal_statusor::StatusOrData.base", [4 x i8] }
%"class.absl::lts_20240722::internal_statusor::StatusOrData.base" = type <{ %union.anon.38, %union.anon.39 }>
%union.anon.38 = type { %"class.absl::lts_20240722::Status" }
%union.anon.39 = type { i32 }
%"class.absl::lts_20240722::internal_statusor::StatusOrData" = type <{ %union.anon.38, %union.anon.39, [4 x i8] }>
%class.anon.52 = type <{ %"class.absl::lts_20240722::AnyInvocable.6", i32, [12 x i8] }>

; Function Attrs: mustprogress nounwind uwtable
define linkonce_odr void @_ZN4absl12lts_202407226StatusC2Em(ptr noundef nonnull align 8 dereferenceable(8) %0, i64 noundef %1) unnamed_addr #6 comdat align 2 {
  %3 = alloca ptr, align 8
  %4 = alloca i64, align 8
  store ptr %0, ptr %3, align 8, !tbaa !95
  store i64 %1, ptr %4, align 8, !tbaa !21
  %5 = load ptr, ptr %3, align 8
  %6 = getelementptr inbounds nuw %"class.absl::lts_20240722::Status", ptr %5, i32 0, i32 0
  %7 = load i64, ptr %4, align 8, !tbaa !21
  store i64 %7, ptr %6, align 8, !tbaa !100
  ret void
}

; Function Attrs: mustprogress nounwind uwtable
define linkonce_odr noundef i64 @_ZN4absl12lts_202407226Status16CodeToInlinedRepENS0_10StatusCodeE(i32 noundef %0) #6 comdat align 2 {
  %2 = alloca i32, align 4
  store i32 %0, ptr %2, align 4, !tbaa !383
  %3 = load i32, ptr %2, align 4, !tbaa !383
  %4 = sext i32 %3 to i64
  %5 = shl i64 %4, 2
  %6 = add i64 %5, 1
  ret i64 %6
}

; Function Attrs: inlinehint mustprogress nounwind uwtable
define linkonce_odr void @_ZN4absl12lts_202407226StatusC2ENS0_10StatusCodeE(ptr noundef nonnull align 8 dereferenceable(8) %0, i32 noundef %1) unnamed_addr #7 comdat align 2 {
  %3 = alloca ptr, align 8
  %4 = alloca i32, align 4
  store ptr %0, ptr %3, align 8, !tbaa !95
  store i32 %1, ptr %4, align 4, !tbaa !383
  %5 = load ptr, ptr %3, align 8
  %6 = load i32, ptr %4, align 4, !tbaa !383
  %7 = call noundef i64 @_ZN4absl12lts_202407226Status16CodeToInlinedRepENS0_10StatusCodeE(i32 noundef %6)
  call void @_ZN4absl12lts_202407226StatusC2Em(ptr noundef nonnull align 8 dereferenceable(8) %5, i64 noundef %7)
  ret void
}

; Function Attrs: inlinehint mustprogress uwtable
define linkonce_odr void @_ZN4absl12lts_202407226StatusC2Ev(ptr noundef nonnull align 8 dereferenceable(8) %0) unnamed_addr #9 comdat align 2 {
  %2 = alloca ptr, align 8
  store ptr %0, ptr %2, align 8, !tbaa !95
  %3 = load ptr, ptr %2, align 8
  call void @_ZN4absl12lts_202407226StatusC2ENS0_10StatusCodeE(ptr noundef nonnull align 8 dereferenceable(8) %3, i32 noundef 0)
  ret void
}

; Function Attrs: mustprogress uwtable
define linkonce_odr void @_ZN4absl12lts_2024072217internal_statusor12PlacementNewINS0_6StatusEJEEEvPvDpOT0_(ptr noundef nonnull %0) #4 comdat {
  %2 = alloca ptr, align 8
  store ptr %0, ptr %2, align 8, !tbaa !154
  %3 = load ptr, ptr %2, align 8, !tbaa !154
  call void @_ZN4absl12lts_202407226StatusC2Ev(ptr noundef nonnull align 8 dereferenceable(8) %3)
  ret void
}

; Function Attrs: mustprogress uwtable
define linkonce_odr void @_ZN4absl12lts_2024072217internal_statusor12StatusOrDataIiE10MakeStatusIJEEEvDpOT_(ptr noundef nonnull align 8 dereferenceable(12) %0) #4 comdat align 2 {
  %2 = alloca ptr, align 8
  store ptr %0, ptr %2, align 8, !tbaa !180
  %3 = load ptr, ptr %2, align 8
  %4 = getelementptr inbounds nuw %"class.absl::lts_20240722::internal_statusor::StatusOrData", ptr %3, i32 0, i32 0
  call void @_ZN4absl12lts_2024072217internal_statusor12PlacementNewINS0_6StatusEJEEEvPvDpOT0_(ptr noundef %4)
  ret void
}

; Function Attrs: mustprogress uwtable
define linkonce_odr void @_ZN4absl12lts_2024072217internal_statusor12StatusOrDataIiEC2IJRiEEESt10in_place_tDpOT_(ptr noundef nonnull align 8 dereferenceable(12) %0, ptr noundef nonnull align 4 dereferenceable(4) %1) unnamed_addr #4 comdat align 2 {
  %3 = alloca ptr, align 8
  %4 = alloca ptr, align 8
  store ptr %0, ptr %3, align 8, !tbaa !180
  store ptr %1, ptr %4, align 8, !tbaa !129
  %5 = load ptr, ptr %3, align 8
  %6 = getelementptr inbounds nuw %"class.absl::lts_20240722::internal_statusor::StatusOrData", ptr %5, i32 0, i32 1
  %7 = load ptr, ptr %4, align 8, !tbaa !129
  %8 = load i32, ptr %7, align 4, !tbaa !104
  store i32 %8, ptr %6, align 8, !tbaa !256
  call void @_ZN4absl12lts_2024072217internal_statusor12StatusOrDataIiE10MakeStatusIJEEEvDpOT_(ptr noundef nonnull align 8 dereferenceable(12) %5)
  ret void
}

; Function Attrs: mustprogress nounwind uwtable
define linkonce_odr noundef ptr @_ZN4absl12lts_2024072222internal_any_invocable4ImplIFvNS0_8StatusOrIiEEEE14ExtractInvokerEv(ptr noundef nonnull align 16 dereferenceable(32) %0) #6 comdat align 2 {
  %2 = alloca ptr, align 8
  %3 = alloca ptr, align 8
  store ptr %0, ptr %2, align 8, !tbaa !716
  %4 = load ptr, ptr %2, align 8
  call void @llvm.lifetime.start.p0(i64 8, ptr %3) #3
  %5 = getelementptr inbounds nuw %"class.absl::lts_20240722::internal_any_invocable::CoreImpl.8", ptr %4, i32 0, i32 2
  %6 = load ptr, ptr %5, align 8, !tbaa !718
  store ptr %6, ptr %3, align 8, !tbaa !154
  %7 = load ptr, ptr %3, align 8, !tbaa !154
  call void @llvm.lifetime.end.p0(i64 8, ptr %3) #3
  ret ptr %7
}

; Function Attrs: mustprogress uwtable
define linkonce_odr void @_ZN4absl12lts_202407228StatusOrIiEC2IJRiEEESt10in_place_tDpOT_(ptr noundef nonnull align 8 dereferenceable(12) %0, ptr noundef nonnull align 4 dereferenceable(4) %1) unnamed_addr #4 comdat align 2 {
  %3 = alloca ptr, align 8
  %4 = alloca ptr, align 8
  store ptr %0, ptr %3, align 8, !tbaa !178
  store ptr %1, ptr %4, align 8, !tbaa !129
  %5 = load ptr, ptr %3, align 8
  %6 = load ptr, ptr %4, align 8, !tbaa !129
  call void @_ZN4absl12lts_2024072217internal_statusor12StatusOrDataIiEC2IJRiEEESt10in_place_tDpOT_(ptr noundef nonnull align 8 dereferenceable(12) %5, ptr noundef nonnull align 4 dereferenceable(4) %6)
  ret void
}

; Function Attrs: mustprogress uwtable
define linkonce_odr void @_ZN4absl12lts_2024072222internal_any_invocable4ImplIFvNS0_8StatusOrIiEEEEclES4_(ptr noundef nonnull align 16 dereferenceable(32) %0, ptr noundef %1) #4 comdat align 2 {
  %3 = alloca ptr, align 8
  %4 = alloca ptr, align 8
  store ptr %0, ptr %3, align 8, !tbaa !716
  store ptr %1, ptr %4, align 8, !tbaa !178
  %5 = load ptr, ptr %3, align 8
  %6 = call noundef ptr @_ZN4absl12lts_2024072222internal_any_invocable4ImplIFvNS0_8StatusOrIiEEEE14ExtractInvokerEv(ptr noundef nonnull align 16 dereferenceable(32) %5)
  %7 = getelementptr inbounds nuw %"class.absl::lts_20240722::internal_any_invocable::CoreImpl.8", ptr %5, i32 0, i32 0
  call void %6(ptr noundef %7, ptr noundef nonnull align 8 dereferenceable(12) %1)
  ret void
}

; Function Attrs: mustprogress uwtable
define linkonce_odr void @_ZN4absl12lts_202407228StatusOrIiEC2IRiTnNSt9enable_ifIXsr17internal_statusor19IsConstructionValidILb0EiT_Lb0EEE5valueEiE4typeELi0EEEOS6_(ptr noundef nonnull align 8 dereferenceable(12) %0, ptr noundef nonnull align 4 dereferenceable(4) %1) unnamed_addr #4 comdat align 2 {
  %3 = alloca ptr, align 8
  %4 = alloca ptr, align 8
  store ptr %0, ptr %3, align 8, !tbaa !178
  store ptr %1, ptr %4, align 8, !tbaa !129
  %5 = load ptr, ptr %3, align 8
  %6 = load ptr, ptr %4, align 8, !tbaa !129
  call void @_ZN4absl12lts_202407228StatusOrIiEC2IJRiEEESt10in_place_tDpOT_(ptr noundef nonnull align 8 dereferenceable(12) %5, ptr noundef nonnull align 4 dereferenceable(4) %6)
  ret void
}

; Function Attrs: inlinehint mustprogress uwtable
define internal void @"_ZZN17grpc_event_engine12experimental17PosixEndpointImplD1EvEN3$_0clEv"(ptr noundef nonnull align 16 dereferenceable(36) %0) #9 align 2 personality ptr @__gxx_personality_v0 {
  %2 = alloca ptr, align 8
  %3 = alloca %"class.absl::lts_20240722::StatusOr", align 8
  %4 = alloca ptr, align 8
  %5 = alloca i32, align 4
  store ptr %0, ptr %2, align 8, !tbaa !154
  %6 = load ptr, ptr %2, align 8
  %7 = getelementptr inbounds nuw %class.anon.52, ptr %6, i32 0, i32 0
  %8 = getelementptr inbounds nuw %class.anon.52, ptr %6, i32 0, i32 1
  call void @_ZN4absl12lts_202407228StatusOrIiEC2IRiTnNSt9enable_ifIXsr17internal_statusor19IsConstructionValidILb0EiT_Lb0EEE5valueEiE4typeELi0EEEOS6_(ptr noundef nonnull align 8 dereferenceable(12) %3, ptr noundef nonnull align 4 dereferenceable(4) %8)
  invoke void @_ZN4absl12lts_2024072222internal_any_invocable4ImplIFvNS0_8StatusOrIiEEEEclES4_(ptr noundef nonnull align 16 dereferenceable(32) %7, ptr noundef %3)
          to label %9 unwind label %10

9:                                                ; preds = %1
  call void @_ZN4absl12lts_2024072217internal_statusor12StatusOrDataIiED2Ev(ptr noundef nonnull align 8 dereferenceable(12) %3) #3
  ret void

10:                                               ; preds = %1
  %11 = landingpad { ptr, i32 }
          cleanup
  %12 = extractvalue { ptr, i32 } %11, 0
  store ptr %12, ptr %4, align 8
  %13 = extractvalue { ptr, i32 } %11, 1
  store i32 %13, ptr %5, align 4
  call void @_ZN4absl12lts_2024072217internal_statusor12StatusOrDataIiED2Ev(ptr noundef nonnull align 8 dereferenceable(12) %3) #3
  br label %14

14:                                               ; preds = %10
  %15 = load ptr, ptr %4, align 8
  %16 = load i32, ptr %5, align 4
  %17 = insertvalue { ptr, i32 } poison, ptr %15, 0
  %18 = insertvalue { ptr, i32 } %17, i32 %16, 1
  resume { ptr, i32 } %18
}

; Function Attrs: mustprogress uwtable
define internal void @"_ZSt13__invoke_implIvRZN17grpc_event_engine12experimental17PosixEndpointImplD1EvE3$_0JEET_St14__invoke_otherOT0_DpOT1_"(ptr noundef nonnull align 16 dereferenceable(36) %0) #4 {
  %2 = alloca ptr, align 8
  store ptr %0, ptr %2, align 8, !tbaa !154
  %3 = load ptr, ptr %2, align 8, !tbaa !154
  call void @"_ZZN17grpc_event_engine12experimental17PosixEndpointImplD1EvEN3$_0clEv"(ptr noundef nonnull align 16 dereferenceable(36) %3)
  ret void
}

; Function Attrs: mustprogress uwtable
define internal void @"_ZSt8__invokeIRZN17grpc_event_engine12experimental17PosixEndpointImplD1EvE3$_0JEENSt15__invoke_resultIT_JDpT0_EE4typeEOS6_DpOS7_"(ptr noundef nonnull align 16 dereferenceable(36) %0) #4 {
  %2 = alloca ptr, align 8
  store ptr %0, ptr %2, align 8, !tbaa !154
  %3 = load ptr, ptr %2, align 8, !tbaa !154
  call void @"_ZSt13__invoke_implIvRZN17grpc_event_engine12experimental17PosixEndpointImplD1EvE3$_0JEET_St14__invoke_otherOT0_DpOT1_"(ptr noundef nonnull align 16 dereferenceable(36) %3)
  ret void
}

; Function Attrs: inlinehint mustprogress uwtable
define internal void @"_ZSt6invokeIRZN17grpc_event_engine12experimental17PosixEndpointImplD1EvE3$_0JEENSt13invoke_resultIT_JDpT0_EE4typeEOS6_DpOS7_"(ptr noundef nonnull align 16 dereferenceable(36) %0) #9 {
  %2 = alloca ptr, align 8
  store ptr %0, ptr %2, align 8, !tbaa !154
  %3 = load ptr, ptr %2, align 8, !tbaa !154
  call void @"_ZSt8__invokeIRZN17grpc_event_engine12experimental17PosixEndpointImplD1EvE3$_0JEENSt15__invoke_resultIT_JDpT0_EE4typeEOS6_DpOS7_"(ptr noundef nonnull align 16 dereferenceable(36) %3)
  ret void
}

; Function Attrs: mustprogress uwtable
define internal void @"_ZN4absl12lts_2024072222internal_any_invocable7InvokeRIvRZN17grpc_event_engine12experimental17PosixEndpointImplD1EvE3$_0JEvEEvOT0_DpOT1_"(ptr noundef nonnull align 16 dereferenceable(36) %0) #4 {
  %2 = alloca ptr, align 8
  store ptr %0, ptr %2, align 8, !tbaa !154
  %3 = load ptr, ptr %2, align 8, !tbaa !154
  call void @"_ZSt6invokeIRZN17grpc_event_engine12experimental17PosixEndpointImplD1EvE3$_0JEENSt13invoke_resultIT_JDpT0_EE4typeEOS6_DpOS7_"(ptr noundef nonnull align 16 dereferenceable(36) %3)
  ret void
}

; Function Attrs: mustprogress uwtable
define internal void @"_ZN4absl12lts_2024072222internal_any_invocable13RemoteInvokerILb0EvRZN17grpc_event_engine12experimental17PosixEndpointImplD1EvE3$_0JEEET0_PNS1_15TypeErasedStateEDpNS1_18ForwardedParameterIT2_E4typeE"(ptr noundef %0) #4 {
  %2 = alloca ptr, align 8
  %3 = alloca ptr, align 8
  store ptr %0, ptr %2, align 8, !tbaa !465
  call void @llvm.lifetime.start.p0(i64 8, ptr %3) #3
  %4 = load ptr, ptr %2, align 8, !tbaa !465
  %5 = getelementptr inbounds nuw %struct.anon, ptr %4, i32 0, i32 0
  %6 = load ptr, ptr %5, align 16, !tbaa !256
  store ptr %6, ptr %3, align 8, !tbaa !154
  %7 = load ptr, ptr %3, align 8, !tbaa !154
  call void @"_ZN4absl12lts_2024072222internal_any_invocable7InvokeRIvRZN17grpc_event_engine12experimental17PosixEndpointImplD1EvE3$_0JEvEEvOT0_DpOT1_"(ptr noundef nonnull align 16 dereferenceable(36) %7)
  call void @llvm.lifetime.end.p0(i64 8, ptr %3) #3
  ret void
}