; Function Attrs: mustprogress uwtable
define internal void @"_ZN4absl12lts_2024072222internal_any_invocable13RemoteInvokerILb0EvRZN17grpc_event_engine12experimental17PosixEndpointImplD1EvE3$_0JEEET0_PNS1_15TypeErasedStateEDpNS1_18ForwardedParameterIT2_E4typeE"(ptr noundef readonly captures(none) %0) #5 personality ptr @__gxx_personality_v0 {
  %2 = alloca %"class.absl::lts_20240722::StatusOr", align 8
  %3 = load ptr, ptr %0, align 16, !tbaa !129
  call void @llvm.lifetime.start.p0(i64 16, ptr nonnull %2)
  %4 = getelementptr inbounds nuw i8, ptr %3, i64 32
  %5 = getelementptr inbounds nuw i8, ptr %2, i64 8
  %6 = load i32, ptr %4, align 4, !tbaa !122
  store i32 %6, ptr %5, align 8, !tbaa !129
  store i64 1, ptr %2, align 8, !tbaa !82
  %7 = getelementptr inbounds nuw i8, ptr %3, i64 24
  %8 = load ptr, ptr %7, align 8, !tbaa !330
  invoke void %8(ptr noundef nonnull align 16 dereferenceable(36) %3, ptr noundef nonnull align 8 dereferenceable(12) %2)
          to label %_ZN4absl12lts_2024072222internal_any_invocable4ImplIFvNS0_8StatusOrIiEEEEclES4_.exit.i.i.i.i.i unwind label %16

_ZN4absl12lts_2024072222internal_any_invocable4ImplIFvNS0_8StatusOrIiEEEEclES4_.exit.i.i.i.i.i: ; preds = %1
  %9 = load i64, ptr %2, align 8, !tbaa !82
  %10 = and i64 %9, 1
  %.not.i.i.i.i.i.i.i.i = icmp eq i64 %10, 0
  br i1 %.not.i.i.i.i.i.i.i.i, label %11, label %"_ZN4absl12lts_2024072222internal_any_invocable7InvokeRIvRZN17grpc_event_engine12experimental17PosixEndpointImplD1EvE3$_0JEvEEvOT0_DpOT1_.exit"

11:                                               ; preds = %_ZN4absl12lts_2024072222internal_any_invocable4ImplIFvNS0_8StatusOrIiEEEEclES4_.exit.i.i.i.i.i
  %12 = inttoptr i64 %9 to ptr
  invoke void @_ZNK4absl12lts_2024072215status_internal9StatusRep5UnrefEv(ptr noundef nonnull align 8 dereferenceable(48) %12)
          to label %"_ZN4absl12lts_2024072222internal_any_invocable7InvokeRIvRZN17grpc_event_engine12experimental17PosixEndpointImplD1EvE3$_0JEvEEvOT0_DpOT1_.exit" unwind label %13

13:                                               ; preds = %11
  %14 = landingpad { ptr, i32 }
          catch ptr null
  %15 = extractvalue { ptr, i32 } %14, 0
  call void @__clang_call_terminate(ptr %15) #43
  unreachable

16:                                               ; preds = %1
  %17 = landingpad { ptr, i32 }
          cleanup
  call void @_ZN4absl12lts_2024072217internal_statusor12StatusOrDataIiED2Ev(ptr noundef nonnull align 8 dereferenceable(12) %2) #41
  resume { ptr, i32 } %17

"_ZN4absl12lts_2024072222internal_any_invocable7InvokeRIvRZN17grpc_event_engine12experimental17PosixEndpointImplD1EvE3$_0JEvEEvOT0_DpOT1_.exit": ; preds = %_ZN4absl12lts_2024072222internal_any_invocable4ImplIFvNS0_8StatusOrIiEEEEclES4_.exit.i.i.i.i.i, %11
  call void @llvm.lifetime.end.p0(i64 16, ptr nonnull %2)
  ret void
}